; Function Attrs: mustprogress uwtable
define dso_local noundef ptr @_ZN12DFSOutputMgr14CreateInstanceEv() local_unnamed_addr #3 align 2 personality ptr @__gxx_personality_v0 {
  %1 = alloca %"class.std::__cxx11::basic_string", align 8
  %2 = load ptr, ptr @_ZN12DFSOutputMgr9instance_E, align 8, !tbaa !17
  %.not = icmp eq ptr %2, null
  br i1 %.not, label %3, label %38

3:                                                ; preds = %0
  %4 = tail call noalias noundef nonnull dereferenceable(40) ptr @_Znwm(i64 noundef 40) #14
  invoke void @_ZN9OutputMgrC2Ev(ptr noundef nonnull align 8 dereferenceable(40) %4)
          to label %5 unwind label %18

5:                                                ; preds = %3
  store ptr getelementptr inbounds nuw inrange(-16, 72) (i8, ptr @_ZTV12DFSOutputMgr, i64 16), ptr %4, align 8, !tbaa !4
  %6 = getelementptr inbounds nuw i8, ptr %4, i64 8
  %7 = getelementptr inbounds nuw i8, ptr %4, i64 24
  store ptr %7, ptr %6, align 8, !tbaa !7
  %8 = getelementptr inbounds nuw i8, ptr %4, i64 16
  store i64 0, ptr %8, align 8, !tbaa !12
  store i8 0, ptr %7, align 1, !tbaa !15
  store ptr %4, ptr @_ZN12DFSOutputMgr9instance_E, align 8, !tbaa !17
  call void @llvm.lifetime.start.p0(i64 32, ptr nonnull %1) #13
  call void @_ZN9CGOptions13struct_outputB5cxx11Ev(ptr dead_on_unwind nonnull writable sret(%"class.std::__cxx11::basic_string") align 8 %1)
  %9 = getelementptr inbounds nuw i8, ptr %1, i64 8
  %10 = load i64, ptr %9, align 8, !tbaa !12
  %11 = icmp eq i64 %10, 0
  %12 = load ptr, ptr @_ZN12DFSOutputMgr9instance_E, align 8, !tbaa !17
  %13 = getelementptr inbounds nuw i8, ptr %12, i64 8
  br i1 %11, label %14, label %29

14:                                               ; preds = %5
  %15 = getelementptr inbounds nuw i8, ptr %12, i64 16
  %16 = load i64, ptr %15, align 8, !tbaa !12
  %17 = invoke noundef nonnull align 8 dereferenceable(32) ptr @_ZNSt7__cxx1112basic_stringIcSt11char_traitsIcESaIcEE10_M_replaceEmmPKcm(ptr noundef nonnull align 8 dereferenceable(32) %13, i64 noundef 0, i64 noundef %16, ptr noundef nonnull @.str, i64 noundef 16)
          to label %_ZNSt7__cxx1112basic_stringIcSt11char_traitsIcESaIcEEaSEPKc.exit unwind label %20

18:                                               ; preds = %3
  %19 = landingpad { ptr, i32 }
          cleanup
  tail call void @_ZdlPvm(ptr noundef nonnull %4, i64 noundef 40) #12
  br label %39

20:                                               ; preds = %29, %14
  %21 = landingpad { ptr, i32 }
          cleanup
  %22 = load ptr, ptr %1, align 8, !tbaa !16
  %23 = getelementptr inbounds nuw i8, ptr %1, i64 16
  %24 = icmp eq ptr %22, %23
  br i1 %24, label %_ZNKSt7__cxx1112basic_stringIcSt11char_traitsIcESaIcEE11_M_is_localEv.exit.thread.i.i, label %_ZNKSt7__cxx1112basic_stringIcSt11char_traitsIcESaIcEE11_M_is_localEv.exit.i.i

_ZNKSt7__cxx1112basic_stringIcSt11char_traitsIcESaIcEE11_M_is_localEv.exit.thread.i.i: ; preds = %20
  %25 = load i64, ptr %9, align 8, !tbaa !12
  %26 = icmp ult i64 %25, 16
  call void @llvm.assume(i1 %26)
  br label %_ZNSt7__cxx1112basic_stringIcSt11char_traitsIcESaIcEED2Ev.exit

_ZNKSt7__cxx1112basic_stringIcSt11char_traitsIcESaIcEE11_M_is_localEv.exit.i.i: ; preds = %20
  %27 = load i64, ptr %23, align 8, !tbaa !15
  %28 = add i64 %27, 1
  call void @_ZdlPvm(ptr noundef %22, i64 noundef %28) #12
  br label %_ZNSt7__cxx1112basic_stringIcSt11char_traitsIcESaIcEED2Ev.exit

_ZNSt7__cxx1112basic_stringIcSt11char_traitsIcESaIcEED2Ev.exit: ; preds = %_ZNKSt7__cxx1112basic_stringIcSt11char_traitsIcESaIcEE11_M_is_localEv.exit.thread.i.i, %_ZNKSt7__cxx1112basic_stringIcSt11char_traitsIcESaIcEE11_M_is_localEv.exit.i.i
  call void @llvm.lifetime.end.p0(i64 32, ptr nonnull %1) #13
  br label %39

29:                                               ; preds = %5
  invoke void @_ZNSt7__cxx1112basic_stringIcSt11char_traitsIcESaIcEE9_M_assignERKS4_(ptr noundef nonnull align 8 dereferenceable(32) %13, ptr noundef nonnull align 8 dereferenceable(32) %1)
          to label %_ZNSt7__cxx1112basic_stringIcSt11char_traitsIcESaIcEEaSEPKc.exit unwind label %20

_ZNSt7__cxx1112basic_stringIcSt11char_traitsIcESaIcEEaSEPKc.exit: ; preds = %29, %14
  %30 = load ptr, ptr @_ZN12DFSOutputMgr9instance_E, align 8, !tbaa !17
  %31 = load ptr, ptr %1, align 8, !tbaa !16
  %32 = getelementptr inbounds nuw i8, ptr %1, i64 16
  %33 = icmp eq ptr %31, %32
  br i1 %33, label %_ZNKSt7__cxx1112basic_stringIcSt11char_traitsIcESaIcEE11_M_is_localEv.exit.thread.i.i7, label %_ZNKSt7__cxx1112basic_stringIcSt11char_traitsIcESaIcEE11_M_is_localEv.exit.i.i6

_ZNKSt7__cxx1112basic_stringIcSt11char_traitsIcESaIcEE11_M_is_localEv.exit.thread.i.i7: ; preds = %_ZNSt7__cxx1112basic_stringIcSt11char_traitsIcESaIcEEaSEPKc.exit
  %34 = load i64, ptr %9, align 8, !tbaa !12
  %35 = icmp ult i64 %34, 16
  call void @llvm.assume(i1 %35)
  br label %_ZNSt7__cxx1112basic_stringIcSt11char_traitsIcESaIcEED2Ev.exit8

_ZNKSt7__cxx1112basic_stringIcSt11char_traitsIcESaIcEE11_M_is_localEv.exit.i.i6: ; preds = %_ZNSt7__cxx1112basic_stringIcSt11char_traitsIcESaIcEEaSEPKc.exit
  %36 = load i64, ptr %32, align 8, !tbaa !15
  %37 = add i64 %36, 1
  call void @_ZdlPvm(ptr noundef %31, i64 noundef %37) #12
  br label %_ZNSt7__cxx1112basic_stringIcSt11char_traitsIcESaIcEED2Ev.exit8

_ZNSt7__cxx1112basic_stringIcSt11char_traitsIcESaIcEED2Ev.exit8: ; preds = %_ZNKSt7__cxx1112basic_stringIcSt11char_traitsIcESaIcEE11_M_is_localEv.exit.thread.i.i7, %_ZNKSt7__cxx1112basic_stringIcSt11char_traitsIcESaIcEE11_M_is_localEv.exit.i.i6
  call void @llvm.lifetime.end.p0(i64 32, ptr nonnull %1) #13
  br label %38

38:                                               ; preds = %0, %_ZNSt7__cxx1112basic_stringIcSt11char_traitsIcESaIcEED2Ev.exit8
  %.03 = phi ptr [ %30, %_ZNSt7__cxx1112basic_stringIcSt11char_traitsIcESaIcEED2Ev.exit8 ], [ %2, %0 ]
  ret ptr %.03

39:                                               ; preds = %_ZNSt7__cxx1112basic_stringIcSt11char_traitsIcESaIcEED2Ev.exit, %18
  %.pn = phi { ptr, i32 } [ %21, %_ZNSt7__cxx1112basic_stringIcSt11char_traitsIcESaIcEED2Ev.exit ], [ %19, %18 ]
  resume { ptr, i32 } %.pn
}